target datalayout = "e-m:e-p270:32:32-p271:32:32-p272:64:64-i64:64-i128:128-f80:128-n8:16:32:64-S128"
target triple = "x86_64-pc-linux-gnu"

%struct.job_container_ops = type { ptr, ptr, ptr, ptr, ptr, ptr, ptr }

@g_container_context_num = internal global i32 -1, align 4
@ops = internal global ptr null, align 8

; Function Attrs: nounwind uwtable
define dso_local i32 @container_g_join(ptr noundef %0, i32 noundef %1, i1 noundef zeroext %2) #0 {
  %4 = alloca ptr, align 8
  %5 = alloca i32, align 4
  %6 = alloca i8, align 1
  %7 = alloca i32, align 4
  %8 = alloca i32, align 4
  store ptr %0, ptr %4, align 8
  store i32 %1, ptr %5, align 4
  %9 = zext i1 %2 to i8
  store i8 %9, ptr %6, align 1
  call void @llvm.lifetime.start.p0(i64 4, ptr %7) #6
  call void @llvm.lifetime.start.p0(i64 4, ptr %8) #6
  store i32 0, ptr %8, align 4
  store i32 0, ptr %7, align 4
  br label %10

10:                                               ; preds = %31, %3
  %11 = load i32, ptr %7, align 4
  %12 = load i32, ptr @g_container_context_num, align 4
  %13 = icmp slt i32 %11, %12
  br i1 %13, label %14, label %17

14:                                               ; preds = %10
  %15 = load i32, ptr %8, align 4
  %16 = icmp eq i32 %15, 0
  br label %17

17:                                               ; preds = %14, %10
  %18 = phi i1 [ false, %10 ], [ %16, %14 ]
  br i1 %18, label %19, label %34

19:                                               ; preds = %17
  %20 = load ptr, ptr @ops, align 8
  %21 = load i32, ptr %7, align 4
  %22 = sext i32 %21 to i64
  %23 = getelementptr inbounds %struct.job_container_ops, ptr %20, i64 %22
  %24 = getelementptr inbounds nuw %struct.job_container_ops, ptr %23, i32 0, i32 0
  %25 = load ptr, ptr %24, align 8
  %26 = load ptr, ptr %4, align 8
  %27 = load i32, ptr %5, align 4
  %28 = load i8, ptr %6, align 1, !range !12, !noundef !13
  %29 = trunc i8 %28 to i1
  %30 = call i32 %25(ptr noundef %26, i32 noundef %27, i1 noundef zeroext %29)
  store i32 %30, ptr %8, align 4
  br label %31

31:                                               ; preds = %19
  %32 = load i32, ptr %7, align 4
  %33 = add nsw i32 %32, 1
  store i32 %33, ptr %7, align 4
  br label %10, !llvm.loop !14

34:                                               ; preds = %17
  %35 = load i32, ptr %8, align 4
  call void @llvm.lifetime.end.p0(i64 4, ptr %8) #6
  call void @llvm.lifetime.end.p0(i64 4, ptr %7) #6
  ret i32 %35
}