; Function Attrs: nounwind uwtable
define dso_local i32 @container_g_join(ptr noundef %0, i32 noundef %1, i1 noundef zeroext %2) local_unnamed_addr #0 {
  %4 = load i32, ptr @g_container_context_num, align 4
  %5 = icmp sgt i32 %4, 0
  br i1 %5, label %.lr.ph, label %._crit_edge

.lr.ph:                                           ; preds = %3, %.lr.ph
  %indvars.iv = phi i64 [ %indvars.iv.next, %.lr.ph ], [ 0, %3 ]
  %6 = load ptr, ptr @ops, align 8
  %7 = getelementptr inbounds nuw %struct.job_container_ops, ptr %6, i64 %indvars.iv
  %8 = load ptr, ptr %7, align 8
  %9 = tail call i32 %8(ptr noundef %0, i32 noundef %1, i1 noundef zeroext %2) #7
  %indvars.iv.next = add nuw nsw i64 %indvars.iv, 1
  %10 = load i32, ptr @g_container_context_num, align 4
  %11 = sext i32 %10 to i64
  %12 = icmp slt i64 %indvars.iv.next, %11
  %13 = icmp eq i32 %9, 0
  %14 = select i1 %12, i1 %13, i1 false
  br i1 %14, label %.lr.ph, label %._crit_edge, !llvm.loop !12

._crit_edge:                                      ; preds = %.lr.ph, %3
  %.0.lcssa = phi i32 [ 0, %3 ], [ %9, %.lr.ph ]
  ret i32 %.0.lcssa
}